target datalayout = "e-m:e-p270:32:32-p271:32:32-p272:64:64-i64:64-i128:128-f80:128-n8:16:32:64-S128"
target triple = "x86_64-pc-linux-gnu"

%class.QList = type { %struct.QArrayDataPointer }
%struct.QArrayDataPointer = type { ptr, ptr, i64 }
%class.QString = type { %struct.QArrayDataPointer.0 }
%struct.QArrayDataPointer.0 = type { ptr, ptr, i64 }
%class.QModelIndex = type { i32, i32, i64, ptr }
%struct.ListElement = type <{ %class.QString, %class.QString, i32, i32, i32, i32, i32, i8, i8, i8, i8 }>
%struct.QArrayData = type { %class.QBasicAtomicInteger, %class.QFlags.21, i64 }
%class.QBasicAtomicInteger = type { %"struct.std::atomic" }
%"struct.std::atomic" = type { %"struct.std::__atomic_base" }
%"struct.std::__atomic_base" = type { i32 }
%class.QFlags.21 = type { i32 }

@_ZL6store_ = internal global %class.QList zeroinitializer, align 8

; Function Attrs: noreturn nounwind uwtable
define linkonce_odr hidden void @__clang_call_terminate(ptr noundef %0) #11 comdat {
  %2 = call ptr @__cxa_begin_catch(ptr %0) #2
  call void @_ZSt9terminatev() #18
  unreachable
}

; Function Attrs: mustprogress nounwind uwtable
define linkonce_odr noundef i32 @_ZStanSt12memory_orderSt23__memory_order_modifier(i32 noundef %0, i32 noundef %1) #1 comdat {
  %3 = alloca i32, align 4
  %4 = alloca i32, align 4
  store i32 %0, ptr %3, align 4
  store i32 %1, ptr %4, align 4
  %5 = load i32, ptr %3, align 4
  %6 = load i32, ptr %4, align 4
  %7 = and i32 %5, %6
  ret i32 %7
}

; Function Attrs: mustprogress nounwind uwtable
define linkonce_odr noundef i32 @_ZN10QAtomicOpsIiE11loadRelaxedIiEET_RKSt6atomicIS2_E(ptr noundef nonnull align 4 dereferenceable(4) %0) #1 comdat align 2 personality ptr @__gxx_personality_v0 {
  %2 = alloca ptr, align 8
  %3 = alloca i32, align 4
  %4 = alloca i32, align 4
  %5 = alloca i32, align 4
  %6 = alloca ptr, align 8
  store ptr %0, ptr %6, align 8
  %7 = load ptr, ptr %6, align 8
  store ptr %7, ptr %2, align 8
  store i32 0, ptr %3, align 4
  %8 = load ptr, ptr %2, align 8
  %9 = load i32, ptr %3, align 4
  %10 = invoke noundef i32 @_ZStanSt12memory_orderSt23__memory_order_modifier(i32 noundef %9, i32 noundef 65535)
          to label %11 unwind label %19

11:                                               ; preds = %1
  store i32 %10, ptr %4, align 4
  %12 = load i32, ptr %3, align 4
  switch i32 %12, label %13 [
    i32 1, label %15
    i32 2, label %15
    i32 5, label %17
  ]

13:                                               ; preds = %11
  %14 = load atomic i32, ptr %8 monotonic, align 4
  store i32 %14, ptr %5, align 4
  br label %22

15:                                               ; preds = %11, %11
  %16 = load atomic i32, ptr %8 acquire, align 4
  store i32 %16, ptr %5, align 4
  br label %22

17:                                               ; preds = %11
  %18 = load atomic i32, ptr %8 seq_cst, align 4
  store i32 %18, ptr %5, align 4
  br label %22

19:                                               ; preds = %1
  %20 = landingpad { ptr, i32 }
          catch ptr null
  %21 = extractvalue { ptr, i32 } %20, 0
  call void @__clang_call_terminate(ptr %21) #18
  unreachable

22:                                               ; preds = %17, %15, %13
  %23 = load i32, ptr %5, align 4
  ret i32 %23
}

; Function Attrs: mustprogress nounwind uwtable
define linkonce_odr noundef i32 @_ZNK19QBasicAtomicIntegerIiE11loadRelaxedEv(ptr noundef nonnull align 4 dereferenceable(4) %0) #1 comdat align 2 {
  %2 = alloca ptr, align 8
  store ptr %0, ptr %2, align 8
  %3 = load ptr, ptr %2, align 8
  %4 = getelementptr inbounds %class.QBasicAtomicInteger, ptr %3, i32 0, i32 0
  %5 = call noundef i32 @_ZN10QAtomicOpsIiE11loadRelaxedIiEET_RKSt6atomicIS2_E(ptr noundef nonnull align 4 dereferenceable(4) %4) #2
  ret i32 %5
}

; Function Attrs: mustprogress nounwind uwtable
define linkonce_odr noundef zeroext i1 @_ZNK10QArrayData11needsDetachEv(ptr noundef nonnull align 8 dereferenceable(16) %0) #1 comdat align 2 {
  %2 = alloca ptr, align 8
  store ptr %0, ptr %2, align 8
  %3 = load ptr, ptr %2, align 8
  %4 = getelementptr inbounds %struct.QArrayData, ptr %3, i32 0, i32 0
  %5 = call noundef i32 @_ZNK19QBasicAtomicIntegerIiE11loadRelaxedEv(ptr noundef nonnull align 4 dereferenceable(4) %4) #2
  %6 = icmp sgt i32 %5, 1
  ret i1 %6
}

; Function Attrs: mustprogress nounwind uwtable
define linkonce_odr noundef ptr @_ZN17QArrayDataPointerI11ListElementE4dataEv(ptr noundef nonnull align 8 dereferenceable(24) %0) #1 comdat align 2 {
  %2 = alloca ptr, align 8
  store ptr %0, ptr %2, align 8
  %3 = load ptr, ptr %2, align 8
  %4 = getelementptr inbounds %struct.QArrayDataPointer, ptr %3, i32 0, i32 1
  %5 = load ptr, ptr %4, align 8
  ret ptr %5
}

; Function Attrs: mustprogress nounwind uwtable
define linkonce_odr noundef zeroext i1 @_ZNK17QArrayDataPointerI11ListElementE11needsDetachEv(ptr noundef nonnull align 8 dereferenceable(24) %0) #1 comdat align 2 {
  %2 = alloca ptr, align 8
  store ptr %0, ptr %2, align 8
  %3 = load ptr, ptr %2, align 8
  %4 = getelementptr inbounds %struct.QArrayDataPointer, ptr %3, i32 0, i32 0
  %5 = load ptr, ptr %4, align 8
  %6 = icmp ne ptr %5, null
  br i1 %6, label %7, label %11

7:                                                ; preds = %1
  %8 = getelementptr inbounds %struct.QArrayDataPointer, ptr %3, i32 0, i32 0
  %9 = load ptr, ptr %8, align 8
  %10 = call noundef zeroext i1 @_ZNK10QArrayData11needsDetachEv(ptr noundef nonnull align 8 dereferenceable(16) %9) #2
  br label %11

11:                                               ; preds = %7, %1
  %12 = phi i1 [ true, %1 ], [ %10, %7 ]
  ret i1 %12
}

; Function Attrs: mustprogress nounwind uwtable
define linkonce_odr noundef ptr @_ZN17QArrayDataPointerI11ListElementE5beginEv(ptr noundef nonnull align 8 dereferenceable(24) %0) #1 comdat align 2 {
  %2 = alloca ptr, align 8
  store ptr %0, ptr %2, align 8
  %3 = load ptr, ptr %2, align 8
  %4 = call noundef ptr @_ZN17QArrayDataPointerI11ListElementE4dataEv(ptr noundef nonnull align 8 dereferenceable(24) %3) #2
  ret ptr %4
}

; Function Attrs: mustprogress nounwind uwtable
define linkonce_odr noundef ptr @_ZN17QArrayDataPointerI11ListElementEptEv(ptr noundef nonnull align 8 dereferenceable(24) %0) #1 comdat align 2 {
  %2 = alloca ptr, align 8
  store ptr %0, ptr %2, align 8
  %3 = load ptr, ptr %2, align 8
  ret ptr %3
}

; Function Attrs: mustprogress uwtable
define linkonce_odr void @_ZN17QArrayDataPointerI11ListElementE6detachEPS1_(ptr noundef nonnull align 8 dereferenceable(24) %0, ptr noundef %1) #3 comdat align 2 {
  %3 = alloca ptr, align 8
  %4 = alloca ptr, align 8
  store ptr %0, ptr %3, align 8
  store ptr %1, ptr %4, align 8
  %5 = load ptr, ptr %3, align 8
  %6 = call noundef zeroext i1 @_ZNK17QArrayDataPointerI11ListElementE11needsDetachEv(ptr noundef nonnull align 8 dereferenceable(24) %5) #2
  br i1 %6, label %7, label %9

7:                                                ; preds = %2
  %8 = load ptr, ptr %4, align 8
  call void @_ZN17QArrayDataPointerI11ListElementE17reallocateAndGrowEN10QArrayData14GrowthPositionExPS1_(ptr noundef nonnull align 8 dereferenceable(24) %5, i32 noundef 0, i64 noundef 0, ptr noundef %8)
  br label %9

9:                                                ; preds = %7, %2
  ret void
}

; Function Attrs: mustprogress uwtable
define linkonce_odr void @_ZN5QListI11ListElementE6removeExx(ptr noundef nonnull align 8 dereferenceable(24) %0, i64 noundef %1, i64 noundef %2) #3 comdat align 2 {
  %4 = alloca ptr, align 8
  %5 = alloca i64, align 8
  %6 = alloca i64, align 8
  store ptr %0, ptr %4, align 8
  store i64 %1, ptr %5, align 8
  store i64 %2, ptr %6, align 8
  %7 = load ptr, ptr %4, align 8
  %8 = load i64, ptr %6, align 8
  %9 = icmp eq i64 %8, 0
  br i1 %9, label %10, label %11

10:                                               ; preds = %3
  br label %21

11:                                               ; preds = %3
  %12 = getelementptr inbounds %class.QList, ptr %7, i32 0, i32 0
  call void @_ZN17QArrayDataPointerI11ListElementE6detachEPS1_(ptr noundef nonnull align 8 dereferenceable(24) %12, ptr noundef null)
  %13 = getelementptr inbounds %class.QList, ptr %7, i32 0, i32 0
  %14 = call noundef ptr @_ZN17QArrayDataPointerI11ListElementEptEv(ptr noundef nonnull align 8 dereferenceable(24) %13) #2
  %15 = getelementptr inbounds %class.QList, ptr %7, i32 0, i32 0
  %16 = call noundef ptr @_ZN17QArrayDataPointerI11ListElementEptEv(ptr noundef nonnull align 8 dereferenceable(24) %15) #2
  %17 = call noundef ptr @_ZN17QArrayDataPointerI11ListElementE5beginEv(ptr noundef nonnull align 8 dereferenceable(24) %16) #2
  %18 = load i64, ptr %5, align 8
  %19 = getelementptr %struct.ListElement, ptr %17, i64 %18
  %20 = load i64, ptr %6, align 8
  call void @_ZN9QtPrivate16QGenericArrayOpsI11ListElementE5eraseEPS1_x(ptr noundef nonnull align 8 dereferenceable(24) %14, ptr noundef %19, i64 noundef %20)
  br label %21

21:                                               ; preds = %11, %10
  ret void
}

; Function Attrs: mustprogress uwtable
define linkonce_odr void @_ZN5QListI11ListElementE8removeAtEx(ptr noundef nonnull align 8 dereferenceable(24) %0, i64 noundef %1) #3 comdat align 2 {
  %3 = alloca ptr, align 8
  %4 = alloca i64, align 8
  store ptr %0, ptr %3, align 8
  store i64 %1, ptr %4, align 8
  %5 = load ptr, ptr %3, align 8
  %6 = load i64, ptr %4, align 8
  call void @_ZN5QListI11ListElementE6removeExx(ptr noundef nonnull align 8 dereferenceable(24) %5, i64 noundef %6, i64 noundef 1)
  ret void
}

; Function Attrs: mustprogress nounwind uwtable
define linkonce_odr void @_ZN11QModelIndexC2Ev(ptr noundef nonnull align 8 dereferenceable(24) %0) unnamed_addr #1 comdat align 2 {
  %2 = alloca ptr, align 8
  store ptr %0, ptr %2, align 8
  %3 = load ptr, ptr %2, align 8
  %4 = getelementptr inbounds %class.QModelIndex, ptr %3, i32 0, i32 0
  store i32 -1, ptr %4, align 8
  %5 = getelementptr inbounds %class.QModelIndex, ptr %3, i32 0, i32 1
  store i32 -1, ptr %5, align 4
  %6 = getelementptr inbounds %class.QModelIndex, ptr %3, i32 0, i32 2
  store i64 0, ptr %6, align 8
  %7 = getelementptr inbounds %class.QModelIndex, ptr %3, i32 0, i32 3
  store ptr null, ptr %7, align 8
  ret void
}

; Function Attrs: mustprogress uwtable
define void @_ZN15ColumnListModel11deleteEntryEi(ptr noundef nonnull align 8 dereferenceable(16) %0, i32 noundef %1) #3 align 2 {
  %3 = alloca ptr, align 8
  %4 = alloca i32, align 4
  %5 = alloca %class.QModelIndex, align 8
  store ptr %0, ptr %3, align 8
  store i32 %1, ptr %4, align 4
  %6 = load ptr, ptr %3, align 8
  call void @_ZN11QModelIndexC2Ev(ptr noundef nonnull align 8 dereferenceable(24) %5) #2
  %7 = load i32, ptr %4, align 4
  %8 = load i32, ptr %4, align 4
  call void @_ZN18QAbstractItemModel15beginRemoveRowsERK11QModelIndexii(ptr noundef nonnull align 8 dereferenceable(16) %6, ptr noundef nonnull align 8 dereferenceable(24) %5, i32 noundef %7, i32 noundef %8)
  %9 = load i32, ptr %4, align 4
  %10 = sext i32 %9 to i64
  call void @_ZN5QListI11ListElementE8removeAtEx(ptr noundef nonnull align 8 dereferenceable(24) @_ZL6store_, i64 noundef %10)
  call void @_ZN18QAbstractItemModel13endRemoveRowsEv(ptr noundef nonnull align 8 dereferenceable(16) %6)
  ret void
}