; Function Attrs: mustprogress uwtable
define void @_ZN15ColumnListModel11deleteEntryEi(ptr noundef nonnull align 8 dereferenceable(16) %0, i32 noundef %1) local_unnamed_addr #2 align 2 personality ptr @__gxx_personality_v0 {
  %3 = alloca %class.QModelIndex, align 8
  store i32 -1, ptr %3, align 8
  %4 = getelementptr inbounds i8, ptr %3, i64 4
  store i32 -1, ptr %4, align 4
  %5 = getelementptr inbounds i8, ptr %3, i64 8
  call void @llvm.memset.p0.i64(ptr noundef nonnull align 8 dereferenceable(16) %5, i8 0, i64 16, i1 false)
  call void @_ZN18QAbstractItemModel15beginRemoveRowsERK11QModelIndexii(ptr noundef nonnull align 8 dereferenceable(16) %0, ptr noundef nonnull align 8 dereferenceable(24) %3, i32 noundef %1, i32 noundef %1)
  %6 = load ptr, ptr @_ZL6store_, align 8
  %.not.i.i.i.i = icmp eq ptr %6, null
  br i1 %.not.i.i.i.i, label %_ZNK17QArrayDataPointerI11ListElementE11needsDetachEv.exit.thread.i.i.i, label %_ZNK17QArrayDataPointerI11ListElementE11needsDetachEv.exit.i.i.i

_ZNK17QArrayDataPointerI11ListElementE11needsDetachEv.exit.i.i.i: ; preds = %2
  %7 = load atomic i32, ptr %6 monotonic, align 4
  %8 = icmp sgt i32 %7, 1
  br i1 %8, label %_ZNK17QArrayDataPointerI11ListElementE11needsDetachEv.exit.thread.i.i.i, label %_ZN5QListI11ListElementE8removeAtEx.exit

_ZNK17QArrayDataPointerI11ListElementE11needsDetachEv.exit.thread.i.i.i: ; preds = %_ZNK17QArrayDataPointerI11ListElementE11needsDetachEv.exit.i.i.i, %2
  call void @_ZN17QArrayDataPointerI11ListElementE17reallocateAndGrowEN10QArrayData14GrowthPositionExPS1_(ptr noundef nonnull align 8 dereferenceable(24) @_ZL6store_, i32 noundef 0, i64 noundef 0, ptr noundef null)
  br label %_ZN5QListI11ListElementE8removeAtEx.exit

_ZN5QListI11ListElementE8removeAtEx.exit:         ; preds = %_ZNK17QArrayDataPointerI11ListElementE11needsDetachEv.exit.i.i.i, %_ZNK17QArrayDataPointerI11ListElementE11needsDetachEv.exit.thread.i.i.i
  %9 = sext i32 %1 to i64
  %10 = load ptr, ptr getelementptr inbounds (%class.QList, ptr @_ZL6store_, i64 0, i32 0, i32 1), align 8
  %11 = getelementptr %struct.ListElement, ptr %10, i64 %9
  call void @_ZN9QtPrivate16QGenericArrayOpsI11ListElementE5eraseEPS1_x(ptr noundef nonnull align 8 dereferenceable(24) @_ZL6store_, ptr noundef %11, i64 noundef 1)
  call void @_ZN18QAbstractItemModel13endRemoveRowsEv(ptr noundef nonnull align 8 dereferenceable(16) %0)
  ret void
}